target datalayout = "e-m:e-p270:32:32-p271:32:32-p272:64:64-i64:64-i128:128-f80:128-n8:16:32:64-S128"
target triple = "x86_64-pc-linux-gnu"

@.str.20 = private unnamed_addr constant [50 x i8] c"malformed Traffic Engineering Router ID (%d vs 4)\00", align 1

; Function Attrs: null_pointer_is_valid sspstrong uwtable
define hidden void @isis_dissect_te_router_id_clv(ptr noundef %0, ptr noundef %1, ptr noundef %2, ptr noundef %3, i32 noundef %4, i32 noundef %5, i32 noundef %6) #0 {
  %8 = alloca ptr, align 8
  %9 = alloca ptr, align 8
  %10 = alloca ptr, align 8
  %11 = alloca ptr, align 8
  %12 = alloca i32, align 4
  %13 = alloca i32, align 4
  %14 = alloca i32, align 4
  store ptr %0, ptr %8, align 8
  store ptr %1, ptr %9, align 8
  store ptr %2, ptr %10, align 8
  store ptr %3, ptr %11, align 8
  store i32 %4, ptr %12, align 4
  store i32 %5, ptr %13, align 4
  store i32 %6, ptr %14, align 4
  %15 = load i32, ptr %13, align 4
  %16 = icmp sle i32 %15, 0
  br i1 %16, label %17, label %18

17:                                               ; preds = %7
  br label %35

18:                                               ; preds = %7
  %19 = load i32, ptr %13, align 4
  %20 = icmp ne i32 %19, 4
  br i1 %20, label %21, label %29

21:                                               ; preds = %18
  %22 = load ptr, ptr %8, align 8
  %23 = load ptr, ptr %9, align 8
  %24 = load ptr, ptr %11, align 8
  %25 = load ptr, ptr %10, align 8
  %26 = load i32, ptr %12, align 4
  %27 = load i32, ptr %13, align 4
  %28 = call ptr (ptr, ptr, ptr, ptr, i32, i32, ptr, ...) @proto_tree_add_expert_format(ptr noundef %22, ptr noundef %23, ptr noundef %24, ptr noundef %25, i32 noundef %26, i32 noundef -1, ptr noundef @.str.20, i32 noundef %27)
  br label %35

29:                                               ; preds = %18
  %30 = load ptr, ptr %8, align 8
  %31 = load i32, ptr %14, align 4
  %32 = load ptr, ptr %10, align 8
  %33 = load i32, ptr %12, align 4
  %34 = call ptr @proto_tree_add_item(ptr noundef %30, i32 noundef %31, ptr noundef %32, i32 noundef %33, i32 noundef 4, i32 noundef 0)
  br label %35

35:                                               ; preds = %29, %21, %17
  ret void
}