; Function Attrs: null_pointer_is_valid sspstrong uwtable
define hidden void @isis_dissect_te_router_id_clv(ptr noundef %0, ptr noundef %1, ptr noundef %2, ptr noundef %3, i32 noundef %4, i32 noundef %5, i32 noundef %6) local_unnamed_addr #0 {
  %8 = icmp slt i32 %5, 1
  br i1 %8, label %14, label %9

9:                                                ; preds = %7
  %.not = icmp eq i32 %5, 4
  br i1 %.not, label %12, label %10

10:                                               ; preds = %9
  %11 = tail call ptr (ptr, ptr, ptr, ptr, i32, i32, ptr, ...) @proto_tree_add_expert_format(ptr noundef %0, ptr noundef %1, ptr noundef %3, ptr noundef %2, i32 noundef %4, i32 noundef -1, ptr noundef nonnull @.str.20, i32 noundef %5)
  br label %14

12:                                               ; preds = %9
  %13 = tail call ptr @proto_tree_add_item(ptr noundef %0, i32 noundef %6, ptr noundef %2, i32 noundef %4, i32 noundef 4, i32 noundef 0)
  br label %14

14:                                               ; preds = %7, %12, %10
  ret void
}